target datalayout = "e-m:e-p270:32:32-p271:32:32-p272:64:64-i64:64-i128:128-f80:128-n8:16:32:64-S128"
target triple = "x86_64-pc-linux-gnu"

%struct._HF_OF_INTEREST_INFO = type { i32, ptr }
%struct._TSUM_PREFERENCES = type { i32, i8, ptr, ptr, i8, i32, i8, i8, i8, i8, i8, i8, i8, i8 }
%struct._PKT_INFO = type { i32, %struct.nstime_t, i8, i8, i8, i8, i8, i32, i32, i16, i16, i16, i8, i8, i16, i16, i64, i64, i16, i8, i8, i32, i16, i16, i8, %struct._RRPD }
%struct.nstime_t = type { i64, i32 }
%struct._RRPD = type { i8, i8, i32, i64, i64, i8, i8, i32, %struct.nstime_t, i32, %struct.nstime_t, i32, %struct.nstime_t, i32, %struct.nstime_t, i32, i32, i32 }
%struct._packet_info = type { ptr, ptr, i32, i32, %struct.nstime_t, %struct.nstime_t, %struct.nstime_t, i8, ptr, ptr, ptr, ptr, %struct._address, %struct._address, %struct._address, %struct._address, %struct._address, %struct._address, i32, ptr, i8, [3 x i8], %struct.anon, i32, i32, i32, i32, ptr, i8, ptr, ptr, i16, i16, i32, i32, i16, i32, i32, ptr, ptr, ptr, i8, i8, i16, i16, i16, i32, i16, i16, ptr, ptr, ptr, ptr, ptr, i32, i32 }
%struct._address = type { i32, i32, ptr, ptr }
%struct.anon = type { i8, [3 x i8] }

@hf_of_interest = external global [29 x %struct._HF_OF_INTEREST_INFO], align 16
@preferences = external global %struct._TSUM_PREFERENCES, align 8

; Function Attrs: null_pointer_is_valid sspstrong uwtable
define hidden i32 @decode_gtcp(ptr noundef %0, ptr noundef %1, ptr noundef %2) #0 {
  %4 = alloca i32, align 4
  %5 = alloca ptr, align 8
  %6 = alloca ptr, align 8
  %7 = alloca ptr, align 8
  %8 = alloca [16 x i32], align 16
  %9 = alloca [16 x i8], align 16
  %10 = alloca i64, align 8
  %11 = alloca i32, align 4
  store ptr %0, ptr %5, align 8
  store ptr %1, ptr %6, align 8
  store ptr %2, ptr %7, align 8
  call void @llvm.lifetime.start.p0(i64 64, ptr %8) #3
  call void @llvm.lifetime.start.p0(i64 16, ptr %9) #3
  call void @llvm.lifetime.start.p0(i64 8, ptr %10) #3
  %12 = load ptr, ptr %6, align 8
  %13 = load i32, ptr getelementptr ([29 x %struct._HF_OF_INTEREST_INFO], ptr @hf_of_interest, i64 0, i64 11), align 16
  %14 = getelementptr inbounds [16 x i32], ptr %8, i64 0, i64 0
  %15 = call i32 @extract_uint(ptr noundef %12, i32 noundef %13, ptr noundef %14, ptr noundef %10)
  %16 = icmp ne i32 %15, 0
  br i1 %16, label %27, label %17

17:                                               ; preds = %3
  %18 = load i64, ptr %10, align 8
  %19 = icmp ne i64 %18, 0
  br i1 %19, label %20, label %26

20:                                               ; preds = %17
  %21 = getelementptr [16 x i32], ptr %8, i64 0, i64 0
  %22 = load i32, ptr %21, align 16
  %23 = load ptr, ptr %7, align 8
  %24 = getelementptr inbounds nuw %struct._PKT_INFO, ptr %23, i32 0, i32 25
  %25 = getelementptr inbounds nuw %struct._RRPD, ptr %24, i32 0, i32 2
  store i32 %22, ptr %25, align 4
  br label %26

26:                                               ; preds = %20, %17
  br label %27

27:                                               ; preds = %26, %3
  %28 = load ptr, ptr %5, align 8
  %29 = getelementptr inbounds nuw %struct._packet_info, ptr %28, i32 0, i32 24
  %30 = load i32, ptr %29, align 4
  %31 = trunc i32 %30 to i16
  %32 = load ptr, ptr %7, align 8
  %33 = getelementptr inbounds nuw %struct._PKT_INFO, ptr %32, i32 0, i32 9
  store i16 %31, ptr %33, align 8
  %34 = load ptr, ptr %5, align 8
  %35 = getelementptr inbounds nuw %struct._packet_info, ptr %34, i32 0, i32 25
  %36 = load i32, ptr %35, align 8
  %37 = trunc i32 %36 to i16
  %38 = load ptr, ptr %7, align 8
  %39 = getelementptr inbounds nuw %struct._PKT_INFO, ptr %38, i32 0, i32 10
  store i16 %37, ptr %39, align 2
  %40 = load ptr, ptr %6, align 8
  %41 = load i32, ptr getelementptr ([29 x %struct._HF_OF_INTEREST_INFO], ptr @hf_of_interest, i64 0, i64 12), align 16
  %42 = getelementptr inbounds [16 x i32], ptr %8, i64 0, i64 0
  %43 = call i32 @extract_uint(ptr noundef %40, i32 noundef %41, ptr noundef %42, ptr noundef %10)
  %44 = icmp ne i32 %43, 0
  br i1 %44, label %55, label %45

45:                                               ; preds = %27
  %46 = load i64, ptr %10, align 8
  %47 = icmp ne i64 %46, 0
  br i1 %47, label %48, label %54

48:                                               ; preds = %45
  %49 = getelementptr [16 x i32], ptr %8, i64 0, i64 0
  %50 = load i32, ptr %49, align 16
  %51 = trunc i32 %50 to i16
  %52 = load ptr, ptr %7, align 8
  %53 = getelementptr inbounds nuw %struct._PKT_INFO, ptr %52, i32 0, i32 11
  store i16 %51, ptr %53, align 4
  br label %54

54:                                               ; preds = %48, %45
  br label %55

55:                                               ; preds = %54, %27
  %56 = load ptr, ptr %6, align 8
  %57 = load i32, ptr getelementptr ([29 x %struct._HF_OF_INTEREST_INFO], ptr @hf_of_interest, i64 0, i64 4), align 16
  %58 = getelementptr inbounds [16 x i8], ptr %9, i64 0, i64 0
  %59 = call i32 @extract_bool(ptr noundef %56, i32 noundef %57, ptr noundef %58, ptr noundef %10)
  %60 = icmp ne i32 %59, 0
  br i1 %60, label %72, label %61

61:                                               ; preds = %55
  %62 = load i64, ptr %10, align 8
  %63 = icmp ne i64 %62, 0
  br i1 %63, label %64, label %71

64:                                               ; preds = %61
  %65 = getelementptr [16 x i8], ptr %9, i64 0, i64 0
  %66 = load i8, ptr %65, align 16, !range !6, !noundef !7
  %67 = trunc i8 %66 to i1
  %68 = load ptr, ptr %7, align 8
  %69 = getelementptr inbounds nuw %struct._PKT_INFO, ptr %68, i32 0, i32 4
  %70 = zext i1 %67 to i8
  store i8 %70, ptr %69, align 2
  br label %71

71:                                               ; preds = %64, %61
  br label %72

72:                                               ; preds = %71, %55
  %73 = load ptr, ptr %6, align 8
  %74 = load i32, ptr getelementptr ([29 x %struct._HF_OF_INTEREST_INFO], ptr @hf_of_interest, i64 0, i64 5), align 16
  %75 = getelementptr inbounds [16 x i8], ptr %9, i64 0, i64 0
  %76 = call i32 @extract_bool(ptr noundef %73, i32 noundef %74, ptr noundef %75, ptr noundef %10)
  %77 = icmp ne i32 %76, 0
  br i1 %77, label %89, label %78

78:                                               ; preds = %72
  %79 = load i64, ptr %10, align 8
  %80 = icmp ne i64 %79, 0
  br i1 %80, label %81, label %88

81:                                               ; preds = %78
  %82 = getelementptr [16 x i8], ptr %9, i64 0, i64 0
  %83 = load i8, ptr %82, align 16, !range !6, !noundef !7
  %84 = trunc i8 %83 to i1
  %85 = load ptr, ptr %7, align 8
  %86 = getelementptr inbounds nuw %struct._PKT_INFO, ptr %85, i32 0, i32 5
  %87 = zext i1 %84 to i8
  store i8 %87, ptr %86, align 1
  br label %88

88:                                               ; preds = %81, %78
  br label %89

89:                                               ; preds = %88, %72
  %90 = load ptr, ptr %6, align 8
  %91 = load i32, ptr getelementptr ([29 x %struct._HF_OF_INTEREST_INFO], ptr @hf_of_interest, i64 0, i64 6), align 16
  %92 = getelementptr inbounds [16 x i8], ptr %9, i64 0, i64 0
  %93 = call i32 @extract_bool(ptr noundef %90, i32 noundef %91, ptr noundef %92, ptr noundef %10)
  %94 = icmp ne i32 %93, 0
  br i1 %94, label %106, label %95

95:                                               ; preds = %89
  %96 = load i64, ptr %10, align 8
  %97 = icmp ne i64 %96, 0
  br i1 %97, label %98, label %105

98:                                               ; preds = %95
  %99 = getelementptr [16 x i8], ptr %9, i64 0, i64 0
  %100 = load i8, ptr %99, align 16, !range !6, !noundef !7
  %101 = trunc i8 %100 to i1
  %102 = load ptr, ptr %7, align 8
  %103 = getelementptr inbounds nuw %struct._PKT_INFO, ptr %102, i32 0, i32 6
  %104 = zext i1 %101 to i8
  store i8 %104, ptr %103, align 4
  br label %105

105:                                              ; preds = %98, %95
  br label %106

106:                                              ; preds = %105, %89
  %107 = load ptr, ptr %6, align 8
  %108 = load i32, ptr getelementptr ([29 x %struct._HF_OF_INTEREST_INFO], ptr @hf_of_interest, i64 0, i64 2), align 16
  %109 = call i32 @extract_instance_count(ptr noundef %107, i32 noundef %108, ptr noundef %10)
  %110 = icmp ne i32 %109, 0
  br i1 %110, label %121, label %111

111:                                              ; preds = %106
  %112 = load i64, ptr %10, align 8
  %113 = icmp ne i64 %112, 0
  br i1 %113, label %114, label %117

114:                                              ; preds = %111
  %115 = load ptr, ptr %7, align 8
  %116 = getelementptr inbounds nuw %struct._PKT_INFO, ptr %115, i32 0, i32 2
  store i8 1, ptr %116, align 8
  br label %120

117:                                              ; preds = %111
  %118 = load ptr, ptr %7, align 8
  %119 = getelementptr inbounds nuw %struct._PKT_INFO, ptr %118, i32 0, i32 2
  store i8 0, ptr %119, align 8
  br label %120

120:                                              ; preds = %117, %114
  br label %121

121:                                              ; preds = %120, %106
  %122 = load ptr, ptr %6, align 8
  %123 = load i32, ptr getelementptr ([29 x %struct._HF_OF_INTEREST_INFO], ptr @hf_of_interest, i64 0, i64 3), align 16
  %124 = call i32 @extract_instance_count(ptr noundef %122, i32 noundef %123, ptr noundef %10)
  %125 = icmp ne i32 %124, 0
  br i1 %125, label %136, label %126

126:                                              ; preds = %121
  %127 = load i64, ptr %10, align 8
  %128 = icmp ne i64 %127, 0
  br i1 %128, label %129, label %132

129:                                              ; preds = %126
  %130 = load ptr, ptr %7, align 8
  %131 = getelementptr inbounds nuw %struct._PKT_INFO, ptr %130, i32 0, i32 2
  store i8 1, ptr %131, align 8
  br label %135

132:                                              ; preds = %126
  %133 = load ptr, ptr %7, align 8
  %134 = getelementptr inbounds nuw %struct._PKT_INFO, ptr %133, i32 0, i32 2
  store i8 0, ptr %134, align 8
  br label %135

135:                                              ; preds = %132, %129
  br label %136

136:                                              ; preds = %135, %121
  %137 = load ptr, ptr %6, align 8
  %138 = load i32, ptr getelementptr ([29 x %struct._HF_OF_INTEREST_INFO], ptr @hf_of_interest, i64 0, i64 17), align 16
  %139 = getelementptr inbounds [16 x i32], ptr %8, i64 0, i64 0
  %140 = call i32 @extract_uint(ptr noundef %137, i32 noundef %138, ptr noundef %139, ptr noundef %10)
  %141 = icmp ne i32 %140, 0
  br i1 %141, label %155, label %142

142:                                              ; preds = %136
  %143 = load i64, ptr %10, align 8
  %144 = icmp ne i64 %143, 0
  br i1 %144, label %145, label %151

145:                                              ; preds = %142
  %146 = getelementptr [16 x i32], ptr %8, i64 0, i64 0
  %147 = load i32, ptr %146, align 16
  %148 = trunc i32 %147 to i8
  %149 = load ptr, ptr %7, align 8
  %150 = getelementptr inbounds nuw %struct._PKT_INFO, ptr %149, i32 0, i32 12
  store i8 %148, ptr %150, align 2
  br label %154

151:                                              ; preds = %142
  %152 = load ptr, ptr %7, align 8
  %153 = getelementptr inbounds nuw %struct._PKT_INFO, ptr %152, i32 0, i32 12
  store i8 0, ptr %153, align 2
  br label %154

154:                                              ; preds = %151, %145
  br label %155

155:                                              ; preds = %154, %136
  %156 = load ptr, ptr getelementptr inbounds nuw (%struct._TSUM_PREFERENCES, ptr @preferences, i32 0, i32 2), align 8
  %157 = load ptr, ptr %7, align 8
  %158 = getelementptr inbounds nuw %struct._PKT_INFO, ptr %157, i32 0, i32 10
  %159 = load i16, ptr %158, align 2
  %160 = zext i16 %159 to i64
  %161 = inttoptr i64 %160 to ptr
  %162 = call ptr @wmem_map_lookup(ptr noundef %156, ptr noundef %161)
  %163 = icmp ne ptr %162, null
  br i1 %163, label %173, label %164

164:                                              ; preds = %155
  %165 = load ptr, ptr getelementptr inbounds nuw (%struct._TSUM_PREFERENCES, ptr @preferences, i32 0, i32 2), align 8
  %166 = load ptr, ptr %7, align 8
  %167 = getelementptr inbounds nuw %struct._PKT_INFO, ptr %166, i32 0, i32 9
  %168 = load i16, ptr %167, align 8
  %169 = zext i16 %168 to i64
  %170 = inttoptr i64 %169 to ptr
  %171 = call ptr @wmem_map_lookup(ptr noundef %165, ptr noundef %170)
  %172 = icmp ne ptr %171, null
  br i1 %172, label %173, label %216

173:                                              ; preds = %164, %155
  %174 = load ptr, ptr getelementptr inbounds nuw (%struct._TSUM_PREFERENCES, ptr @preferences, i32 0, i32 2), align 8
  %175 = load ptr, ptr %7, align 8
  %176 = getelementptr inbounds nuw %struct._PKT_INFO, ptr %175, i32 0, i32 10
  %177 = load i16, ptr %176, align 2
  %178 = zext i16 %177 to i64
  %179 = inttoptr i64 %178 to ptr
  %180 = call ptr @wmem_map_lookup(ptr noundef %174, ptr noundef %179)
  %181 = icmp ne ptr %180, null
  br i1 %181, label %182, label %186

182:                                              ; preds = %173
  %183 = load ptr, ptr %7, align 8
  %184 = getelementptr inbounds nuw %struct._PKT_INFO, ptr %183, i32 0, i32 25
  %185 = getelementptr inbounds nuw %struct._RRPD, ptr %184, i32 0, i32 0
  store i8 1, ptr %185, align 8
  br label %186

186:                                              ; preds = %182, %173
  %187 = load ptr, ptr %7, align 8
  %188 = getelementptr inbounds nuw %struct._PKT_INFO, ptr %187, i32 0, i32 2
  %189 = load i8, ptr %188, align 8, !range !6, !noundef !7
  %190 = trunc i8 %189 to i1
  %191 = load ptr, ptr %7, align 8
  %192 = getelementptr inbounds nuw %struct._PKT_INFO, ptr %191, i32 0, i32 25
  %193 = getelementptr inbounds nuw %struct._RRPD, ptr %192, i32 0, i32 6
  %194 = zext i1 %190 to i8
  store i8 %194, ptr %193, align 1
  %195 = load ptr, ptr %7, align 8
  %196 = getelementptr inbounds nuw %struct._PKT_INFO, ptr %195, i32 0, i32 25
  %197 = getelementptr inbounds nuw %struct._RRPD, ptr %196, i32 0, i32 3
  store i64 0, ptr %197, align 8
  %198 = load ptr, ptr %7, align 8
  %199 = getelementptr inbounds nuw %struct._PKT_INFO, ptr %198, i32 0, i32 25
  %200 = getelementptr inbounds nuw %struct._RRPD, ptr %199, i32 0, i32 4
  store i64 0, ptr %200, align 8
  %201 = load ptr, ptr %7, align 8
  %202 = getelementptr inbounds nuw %struct._PKT_INFO, ptr %201, i32 0, i32 25
  %203 = getelementptr inbounds nuw %struct._RRPD, ptr %202, i32 0, i32 15
  store i32 2, ptr %203, align 8
  %204 = load ptr, ptr %7, align 8
  %205 = getelementptr inbounds nuw %struct._PKT_INFO, ptr %204, i32 0, i32 25
  %206 = getelementptr inbounds nuw %struct._RRPD, ptr %205, i32 0, i32 5
  store i8 0, ptr %206, align 8
  %207 = load ptr, ptr %7, align 8
  %208 = getelementptr inbounds nuw %struct._PKT_INFO, ptr %207, i32 0, i32 11
  %209 = load i16, ptr %208, align 4
  %210 = zext i16 %209 to i32
  %211 = icmp sgt i32 %210, 0
  br i1 %211, label %212, label %215

212:                                              ; preds = %186
  %213 = load ptr, ptr %7, align 8
  %214 = getelementptr inbounds nuw %struct._PKT_INFO, ptr %213, i32 0, i32 24
  store i8 1, ptr %214, align 4
  br label %215

215:                                              ; preds = %212, %186
  store i32 1, ptr %4, align 4
  store i32 1, ptr %11, align 4
  br label %217

216:                                              ; preds = %164
  store i32 0, ptr %4, align 4
  store i32 1, ptr %11, align 4
  br label %217

217:                                              ; preds = %216, %215
  call void @llvm.lifetime.end.p0(i64 8, ptr %10) #3
  call void @llvm.lifetime.end.p0(i64 16, ptr %9) #3
  call void @llvm.lifetime.end.p0(i64 64, ptr %8) #3
  %218 = load i32, ptr %4, align 4
  ret i32 %218
}