; Function Attrs: null_pointer_is_valid sspstrong uwtable
define hidden range(i32 0, 2) i32 @decode_gtcp(ptr noundef readonly captures(none) %0, ptr noundef %1, ptr noundef captures(none) initializes((40, 44)) %2) local_unnamed_addr #0 {
  %4 = alloca [16 x i32], align 16
  %5 = alloca [16 x i8], align 16
  %6 = alloca i64, align 8
  call void @llvm.lifetime.start.p0(i64 64, ptr nonnull %4) #5
  call void @llvm.lifetime.start.p0(i64 16, ptr nonnull %5) #5
  call void @llvm.lifetime.start.p0(i64 8, ptr nonnull %6) #5
  %7 = load i32, ptr getelementptr inbounds nuw (i8, ptr @hf_of_interest, i64 176), align 16
  %8 = call i32 @extract_uint(ptr noundef %1, i32 noundef %7, ptr noundef nonnull %4, ptr noundef nonnull %6)
  %9 = icmp eq i32 %8, 0
  %10 = load i64, ptr %6, align 8
  %11 = icmp ne i64 %10, 0
  %or.cond = select i1 %9, i1 %11, i1 false
  br i1 %or.cond, label %12, label %15

12:                                               ; preds = %3
  %13 = load i32, ptr %4, align 16
  %14 = getelementptr inbounds nuw i8, ptr %2, i64 92
  store i32 %13, ptr %14, align 4
  br label %15

15:                                               ; preds = %12, %3
  %16 = getelementptr inbounds nuw i8, ptr %0, i64 284
  %17 = load i32, ptr %16, align 4
  %18 = trunc i32 %17 to i16
  %19 = getelementptr inbounds nuw i8, ptr %2, i64 40
  store i16 %18, ptr %19, align 8
  %20 = getelementptr inbounds nuw i8, ptr %0, i64 288
  %21 = load i32, ptr %20, align 8
  %22 = trunc i32 %21 to i16
  %23 = getelementptr inbounds nuw i8, ptr %2, i64 42
  store i16 %22, ptr %23, align 2
  %24 = load i32, ptr getelementptr inbounds nuw (i8, ptr @hf_of_interest, i64 192), align 16
  %25 = call i32 @extract_uint(ptr noundef %1, i32 noundef %24, ptr noundef nonnull %4, ptr noundef nonnull %6)
  %26 = icmp eq i32 %25, 0
  %27 = load i64, ptr %6, align 8
  %28 = icmp ne i64 %27, 0
  %or.cond3 = select i1 %26, i1 %28, i1 false
  br i1 %or.cond3, label %29, label %33

29:                                               ; preds = %15
  %30 = load i32, ptr %4, align 16
  %31 = trunc i32 %30 to i16
  %32 = getelementptr inbounds nuw i8, ptr %2, i64 44
  store i16 %31, ptr %32, align 4
  br label %33

33:                                               ; preds = %29, %15
  %34 = load i32, ptr getelementptr inbounds nuw (i8, ptr @hf_of_interest, i64 64), align 16
  %35 = call i32 @extract_bool(ptr noundef %1, i32 noundef %34, ptr noundef nonnull %5, ptr noundef nonnull %6)
  %36 = icmp eq i32 %35, 0
  %37 = load i64, ptr %6, align 8
  %38 = icmp ne i64 %37, 0
  %or.cond5 = select i1 %36, i1 %38, i1 false
  br i1 %or.cond5, label %39, label %42

39:                                               ; preds = %33
  %40 = load i8, ptr %5, align 16, !range !6, !noundef !7
  %41 = getelementptr inbounds nuw i8, ptr %2, i64 26
  store i8 %40, ptr %41, align 2
  br label %42

42:                                               ; preds = %39, %33
  %43 = load i32, ptr getelementptr inbounds nuw (i8, ptr @hf_of_interest, i64 80), align 16
  %44 = call i32 @extract_bool(ptr noundef %1, i32 noundef %43, ptr noundef nonnull %5, ptr noundef nonnull %6)
  %45 = icmp eq i32 %44, 0
  %46 = load i64, ptr %6, align 8
  %47 = icmp ne i64 %46, 0
  %or.cond7 = select i1 %45, i1 %47, i1 false
  br i1 %or.cond7, label %48, label %51

48:                                               ; preds = %42
  %49 = load i8, ptr %5, align 16, !range !6, !noundef !7
  %50 = getelementptr inbounds nuw i8, ptr %2, i64 27
  store i8 %49, ptr %50, align 1
  br label %51

51:                                               ; preds = %48, %42
  %52 = load i32, ptr getelementptr inbounds nuw (i8, ptr @hf_of_interest, i64 96), align 16
  %53 = call i32 @extract_bool(ptr noundef %1, i32 noundef %52, ptr noundef nonnull %5, ptr noundef nonnull %6)
  %54 = icmp eq i32 %53, 0
  %55 = load i64, ptr %6, align 8
  %56 = icmp ne i64 %55, 0
  %or.cond9 = select i1 %54, i1 %56, i1 false
  br i1 %or.cond9, label %57, label %60

57:                                               ; preds = %51
  %58 = load i8, ptr %5, align 16, !range !6, !noundef !7
  %59 = getelementptr inbounds nuw i8, ptr %2, i64 28
  store i8 %58, ptr %59, align 4
  br label %60

60:                                               ; preds = %57, %51
  %61 = load i32, ptr getelementptr inbounds nuw (i8, ptr @hf_of_interest, i64 32), align 16
  %62 = call i32 @extract_instance_count(ptr noundef %1, i32 noundef %61, ptr noundef nonnull %6)
  %.not = icmp eq i32 %62, 0
  br i1 %.not, label %.sink.split, label %65

.sink.split:                                      ; preds = %60
  %63 = load i64, ptr %6, align 8
  %.not44 = icmp ne i64 %63, 0
  %64 = getelementptr inbounds nuw i8, ptr %2, i64 24
  %. = zext i1 %.not44 to i8
  store i8 %., ptr %64, align 8
  br label %65

65:                                               ; preds = %.sink.split, %60
  %66 = load i32, ptr getelementptr inbounds nuw (i8, ptr @hf_of_interest, i64 48), align 16
  %67 = call i32 @extract_instance_count(ptr noundef %1, i32 noundef %66, ptr noundef nonnull %6)
  %.not45 = icmp eq i32 %67, 0
  br i1 %.not45, label %.sink.split53, label %70

.sink.split53:                                    ; preds = %65
  %68 = load i64, ptr %6, align 8
  %.not46 = icmp ne i64 %68, 0
  %69 = getelementptr inbounds nuw i8, ptr %2, i64 24
  %.58 = zext i1 %.not46 to i8
  store i8 %.58, ptr %69, align 8
  br label %70

70:                                               ; preds = %.sink.split53, %65
  %71 = load i32, ptr getelementptr inbounds nuw (i8, ptr @hf_of_interest, i64 272), align 16
  %72 = call i32 @extract_uint(ptr noundef %1, i32 noundef %71, ptr noundef nonnull %4, ptr noundef nonnull %6)
  %.not47 = icmp eq i32 %72, 0
  br i1 %.not47, label %.sink.split55, label %77

.sink.split55:                                    ; preds = %70
  %73 = load i64, ptr %6, align 8
  %.not48 = icmp eq i64 %73, 0
  %74 = load i32, ptr %4, align 16
  %75 = trunc i32 %74 to i8
  %.sink56 = select i1 %.not48, i8 0, i8 %75
  %76 = getelementptr inbounds nuw i8, ptr %2, i64 46
  store i8 %.sink56, ptr %76, align 2
  br label %77

77:                                               ; preds = %.sink.split55, %70
  %78 = load ptr, ptr getelementptr inbounds nuw (i8, ptr @preferences, i64 8), align 8
  %79 = load i16, ptr %23, align 2
  %80 = zext i16 %79 to i64
  %81 = inttoptr i64 %80 to ptr
  %82 = call ptr @wmem_map_lookup(ptr noundef %78, ptr noundef %81)
  %.not49 = icmp eq ptr %82, null
  br i1 %.not49, label %83, label %89

83:                                               ; preds = %77
  %84 = load ptr, ptr getelementptr inbounds nuw (i8, ptr @preferences, i64 8), align 8
  %85 = load i16, ptr %19, align 8
  %86 = zext i16 %85 to i64
  %87 = inttoptr i64 %86 to ptr
  %88 = call ptr @wmem_map_lookup(ptr noundef %84, ptr noundef %87)
  %.not50 = icmp eq ptr %88, null
  br i1 %.not50, label %108, label %89

89:                                               ; preds = %83, %77
  %90 = load ptr, ptr getelementptr inbounds nuw (i8, ptr @preferences, i64 8), align 8
  %91 = load i16, ptr %23, align 2
  %92 = zext i16 %91 to i64
  %93 = inttoptr i64 %92 to ptr
  %94 = call ptr @wmem_map_lookup(ptr noundef %90, ptr noundef %93)
  %.not51 = icmp eq ptr %94, null
  br i1 %.not51, label %97, label %95

95:                                               ; preds = %89
  %96 = getelementptr inbounds nuw i8, ptr %2, i64 88
  store i8 1, ptr %96, align 8
  br label %97

97:                                               ; preds = %95, %89
  %98 = getelementptr inbounds nuw i8, ptr %2, i64 24
  %99 = load i8, ptr %98, align 8, !range !6, !noundef !7
  %100 = getelementptr inbounds nuw i8, ptr %2, i64 113
  store i8 %99, ptr %100, align 1
  %101 = getelementptr inbounds nuw i8, ptr %2, i64 96
  %102 = getelementptr inbounds nuw i8, ptr %2, i64 208
  call void @llvm.memset.p0.i64(ptr noundef nonnull align 8 dereferenceable(16) %101, i8 0, i64 16, i1 false)
  store i32 2, ptr %102, align 8
  %103 = getelementptr inbounds nuw i8, ptr %2, i64 112
  store i8 0, ptr %103, align 8
  %104 = getelementptr inbounds nuw i8, ptr %2, i64 44
  %105 = load i16, ptr %104, align 4
  %.not52 = icmp eq i16 %105, 0
  br i1 %.not52, label %108, label %106

106:                                              ; preds = %97
  %107 = getelementptr inbounds nuw i8, ptr %2, i64 84
  store i8 1, ptr %107, align 4
  br label %108

108:                                              ; preds = %83, %97, %106
  %.0 = phi i32 [ 1, %106 ], [ 1, %97 ], [ 0, %83 ]
  call void @llvm.lifetime.end.p0(i64 8, ptr nonnull %6) #5
  call void @llvm.lifetime.end.p0(i64 16, ptr nonnull %5) #5
  call void @llvm.lifetime.end.p0(i64 64, ptr nonnull %4) #5
  ret i32 %.0
}